(ikeras_frcnn.config
Config
p0
(dp1
S'use_vertical_flips'
p2
I00
sS'verbose'
p3
I01
sS'classifier_regr_std'
p4
(lp5
F8.0
aF8.0
aF4.0
aF4.0
asS'classifier_min_overlap'
p6
F0.1
sS'rot_90'
p7
I00
sS'class_mapping'
p8
(dp9
S'sheep'
p10
I19
sS'horse'
p11
I7
sS'bg'
p12
I20
sS'bicycle'
p13
I17
sS'aeroplane'
p14
I11
sS'cow'
p15
I8
sS'sofa'
p16
I13
sS'car'
p17
I0
sS'dog'
p18
I4
sS'cat'
p19
I10
sS'person'
p20
I1
sS'train'
p21
I16
sS'boat'
p22
I18
sS'bottle'
p23
I3
sS'bus'
p24
I9
sS'pottedplant'
p25
I14
sS'tvmonitor'
p26
I6
sS'chair'
p27
I5
sS'bird'
p28
I15
sS'diningtable'
p29
I2
sS'motorbike'
p30
I12
ssS'use_horizontal_flips'
p31
I00
sS'rpn_max_overlap'
p32
F0.7
sS'network'
p33
S'resnet50'
p34
sS'img_channel_mean'
p35
(lp36
F103.939
aF116.779
aF123.68
asS'balanced_classes'
p37
I00
sS'anchor_box_ratios'
p38
(lp39
(lp40
I1
aI1
aa(lp41
F0.7071067811865475
aF1.414213562373095
aa(lp42
F1.414213562373095
aF0.7071067811865475
aasS'img_scaling_factor'
p43
F1.0
sS'rpn_stride'
p44
I16
sS'num_rois'
p45
I32
sS'base_net_weights'
p46
S'resnet50_weights_tf_dim_ordering_tf_kernels.h5'
p47
sS'anchor_box_scales'
p48
(lp49
I128
aI256
aI512
asS'rpn_min_overlap'
p50
F0.3
sS'model_path'
p51
S'./model_frcnn.hdf5'
p52
sS'classifier_max_overlap'
p53
F0.5
sS'std_scaling'
p54
F4.0
sS'im_size'
p55
I600
sb.